(dp0
VPau Gasol
p1
I2200
sVJodie Meeks
p2
I201975
sVJoakim Noah
p3
I201149
sVDerrick Williams
p4
I202682
sVRandy Foye
p5
I200751
sVRobbie Hummel
p6
I203133
sVMike Miller
p7
I2034
sVJorge Gutierrez
p8
I203268
sVDraymond Green
p9
I203110
sVKyle Lowry
p10
I200768
sVCarlos Boozer
p11
I2430
sVJannero Pargo
p12
I2457
sVRaymond Felton
p13
I101109
sVAustin Daye
p14
I201948
sVThaddeus Young
p15
I201152
sVKostas Papanikolaou
p16
I203123
sVKevin Love
p17
I201567
sVNikola Vucevic
p18
I202696
sVAaron Brooks
p19
I201166
sVGeorge Hill
p20
I201588
sVJordan Hamilton
p21
I202706
sVIsaiah Thomas
p22
I202738
sVJames Ennis
p23
I203516
sVJared Sullinger
p24
I203096
sVPaul Millsap
p25
I200794
sVAvery Bradley
p26
I202340
sVJoe Johnson
p27
I2207
sVWill Barton
p28
I203115
sVNik Stauskas
p29
I203917
sVJerami Grant
p30
I203924
sVJames Jones
p31
I2592
sVDeMarcus Cousins
p32
I202326
sVMichael Carter-Williams
p33
I203487
sVAndrew Wiggins
p34
I203952
sVCaron Butler
p35
I2406
sVJulius Randle
p36
I203944
sVMarc Gasol
p37
I201188
sVTony Parker
p38
I2225
sVLeBron James
p39
I2544
sVBrook Lopez
p40
I201572
sVDwight Powell
p41
I203939
sVDamian Lillard
p42
I203081
sVZach Randolph
p43
I2216
sVNazr Mohammed
p44
I1737
sVLuke Ridnour
p45
I2557
sVMalcolm Thomas
p46
I202952
sVEnes Kanter
p47
I202683
sVTy Lawson
p48
I201951
sVWesley Matthews
p49
I202083
sVSergey Karasev
p50
I203508
sVHenry Walker
p51
I201611
sVElijah Millsap
p52
I202407
sVBryce Cotton
p53
I203955
sVMario Chalmers
p54
I201596
sVJerel McNeal
p55
I202077
sVReggie Evans
p56
I2501
sVJeff Adrien
p57
I202399
sVA.J. Price
p58
I201985
sVJohn Wall
p59
I202322
sVJabari Brown
p60
I203913
sVDanny Granger
p61
I101122
sVTJ Warren
p62
I203933
sVAl-Farouq Aminu
p63
I202329
sVAl Horford
p64
I201143
sVReggie Williams
p65
I202130
sVKyle O'Quinn
p66
I203124
sVFestus Ezeli
p67
I203105
sVJames Johnson
p68
I201949
sVAmir Johnson
p69
I101161
sVRasual Butler
p70
I2446
sVTyler Zeller
p71
I203092
sVDorell Wright
p72
I2748
sVIsh Smith
p73
I202397
sVChris Kaman
p74
I2549
sVErsan Ilyasova
p75
I101141
sVO.J. Mayo
p76
I201564
sVDonatas Motiejunas
p77
I202700
sVJason Smith
p78
I201160
sVBrandon Rush
p79
I201575
sVManu Ginobili
p80
I1938
sVReggie Jackson
p81
I202704
sVKevin Garnett
p82
I708
sVJimmy Butler
p83
I202710
sVCourtney Lee
p84
I201584
sVLuol Deng
p85
I2736
sVToure Murry
p86
I203315
sVJordan Hill
p87
I201941
sVEric Bledsoe
p88
I202339
sVJeremy Evans
p89
I202379
sVZaza Pachulia
p90
I2585
sVJosh Smith
p91
I2746
sVLucas Nogueira
p92
I203512
sVDavid Stockton
p93
I204065
sVJamal Crawford
p94
I2037
sVJoe Ingles
p95
I204060
sVAnthony Bennett
p96
I203461
sVTyler Johnson
p97
I204020
sVNoah Vonleh
p98
I203943
sVTony Wroten
p99
I203100
sVJJ Hickson
p100
I201581
sVKobe Bryant
p101
I977
sVJon Leuer
p102
I202720
sVKentavious Caldwell-Pope
p103
I203484
sVEarl Clark
p104
I201947
sVLuis Scola
p105
I2449
sVCameron Bairstow
p106
I203946
sVDeAndre Jordan
p107
I201599
sVJordan Adams
p108
I203919
sVJordan Clarkson
p109
I203903
sVGoran Dragic
p110
I201609
sVJeff Withey
p111
I203481
sVDanilo Gallinari
p112
I201568
sVStephen Curry
p113
I201939
sVBernard James
p114
I203108
sVKevin Martin
p115
I2755
sVChris Copeland
p116
I203142
sVMiles Plumlee
p117
I203101
sVJordan Farmar
p118
I200770
sVKris Humphries
p119
I2743
sVJason Richardson
p120
I2202
sVWesley Johnson
p121
I202325
sVKelly Olynyk
p122
I203482
sVSteven Adams
p123
I203500
sVVander Blue
p124
I203505
sVDavid West
p125
I2561
sVPhil Pressey
p126
I203515
sVJohn Lucas III
p127
I101249
sVPablo Prigioni
p128
I203143
sVRajon Rondo
p129
I200765
sVJames Young
p130
I203923
sVCleanthony Early
p131
I203921
sVGary Neal
p132
I202390
sVTimofey Mozgov
p133
I202389
sVRodney Stuckey
p134
I201155
sVTroy Daniels
p135
I203584
sVBeno Udrih
p136
I2757
sVOmri Casspi
p137
I201956
sVNene
p138
I2403
sVErick Green
p139
I203475
sVChris Paul
p140
I101108
sVMarcus Smart
p141
I203935
sVVictor Claver
p142
I201964
sVKemba Walker
p143
I202689
sVJohn Jenkins
p144
I203098
sVTrevor Booker
p145
I202344
sVTyreke Evans
p146
I201936
sVCharles Hayes
p147
I101236
sVReggie Bullock
p148
I203493
sVMeyers Leonard
p149
I203086
sVJerome Jordan
p150
I202366
sVMarcus Thornton
p151
I201977
sVZoran Dragic
p152
I204054
sVAlan Anderson
p153
I101187
sVMichael Kidd-Gilchrist
p154
I203077
sVJeff Teague
p155
I201952
sVJamaal Franklin
p156
I203479
sVSamuel Dalembert
p157
I2223
sVKirk Hinrich
p158
I2550
sVEvan Turner
p159
I202323
sVShavlik Randolph
p160
I101183
sVAlexey Shved
p161
I203144
sVCory Joseph
p162
I202709
sVMonta Ellis
p163
I101145
sVLavoy Allen
p164
I202730
sVZach LaVine
p165
I203897
sVMike Scott
p166
I203118
sVPatrick Christopher
p167
I203565
sVShelvin Mack
p168
I202714
sVJeff Green
p169
I201145
sVDonald Sloan
p170
I202388
sVGorgui Dieng
p171
I203476
sVRoy Hibbert
p172
I201579
sVRuss Smith
p173
I203893
sVTony Allen
p174
I2754
sVWill Cherry
p175
I203805
sVDwight Buycks
p176
I202779
sVSim Bhullar
p177
I204021
sVEd Davis
p178
I202334
sVKevin Durant
p179
I201142
sVDavid Wear
p180
I204033
sVSebastian Telfair
p181
I2742
sVDevyn Marble
p182
I203906
sVChris Johnson
p183
I203187
sVJaVale McGee
p184
I201580
sVShannon Brown
p185
I200769
sVAustin Rivers
p186
I203085
sVCorey Brewer
p187
I201147
sVMirza Teletovic
p188
I203141
sVKyrie Irving
p189
I202681
sVDarrell Arthur
p190
I201589
sVJoe Harris
p191
I203925
sVJason Terry
p192
I1891
sVDarius Morris
p193
I202721
sVThomas Robinson
p194
I203080
sVRudy Gobert
p195
I203497
sVDavid Lee
p196
I101135
sVGiannis Antetokounmpo
p197
I203507
sVNate Wolters
p198
I203489
sVKenneth Faried
p199
I202702
sVEarl Barron
p200
I2853
sVShaun Livingston
p201
I2733
sVVince Carter
p202
I1713
sVBradley Beal
p203
I203078
sVCole Aldrich
p204
I202332
sVLester Hudson
p205
I201991
sVJared Cunningham
p206
I203099
sVTarik Black
p207
I204028
sVCJ Wilcox
p208
I203912
sVCJ McCollum
p209
I203468
sVTyler Ennis
p210
I203898
sVQuincy Miller
p211
I203113
sVNick Young
p212
I201156
sVNikola Pekovic
p213
I201593
sVAdreian Payne
p214
I203940
sVPJ Tucker
p215
I200782
sVKosta Koufos
p216
I201585
sVToney Douglas
p217
I201962
sVShayne Whittington
p218
I203963
sVNick Calathes
p219
I201979
sVAnderson Varejao
p220
I2760
sVNorris Cole
p221
I202708
sVTyler Hansbrough
p222
I201946
sVMike Muscala
p223
I203488
sVJustin Holiday
p224
I203200
sVMalcolm Lee
p225
I202723
sVTravis Wear
p226
I204037
sVMarvin Williams
p227
I101107
sVJeff Ayres
p228
I201965
sVJameer Nelson
p229
I2749
sVWillie Green
p230
I2584
sVBismack Biyombo
p231
I202687
sVJarnell Stokes
p232
I203950
sVDeron Williams
p233
I101114
sVLuc Mbah a Moute
p234
I201601
sVMo Williams
p235
I2590
sVSteve Blake
p236
I2581
sVPatrick Beverley
p237
I201976
sVUdonis Haslem
p238
I2617
sVGlen Rice Jr.
p239
I203318
sVAnthony Morrow
p240
I201627
sVMartell Webster
p241
I101110
sVAnthony Tolliver
p242
I201229
sVKendall Marshall
p243
I203088
sVJohn Salmons
p244
I2422
sVArchie Goodwin
p245
I203462
sVLarry Drew
p246
I203580
sVTaj Gibson
p247
I201959
sVAnthony Davis
p248
I203076
sVGreg Stiemsma
p249
I201880
sVDoug McDermott
p250
I203926
sVGarrett Temple
p251
I202066
sVLorenzo Brown
p252
I203485
sVKevin Seraphin
p253
I202338
sVKhris Middleton
p254
I203114
sVSolomon Hill
p255
I203524
sVRobin Lopez
p256
I201577
sVJoel Anthony
p257
I201202
sVTim Frazier
p258
I204025
sVGlenn Robinson
p259
I203922
sVLance Stephenson
p260
I202362
sVAlex Kirk
p261
I203945
sVE'Twaun Moore
p262
I202734
sVLance Thomas
p263
I202498
sVBrandon Knight
p264
I202688
sVCarmelo Anthony
p265
I2546
sVPerry Jones
p266
I203103
sVHollis Thompson
p267
I203138
sVGerald Wallace
p268
I2222
sVJae Crowder
p269
I203109
sVSpencer Hawes
p270
I201150
sVElfrid Payton
p271
I203901
sVJeremy Lamb
p272
I203087
sVTiago Splitter
p273
I201168
sVThabo Sefolosha
p274
I200757
sVKyle Korver
p275
I2594
sVBrandon Bass
p276
I101138
sVNick Collison
p277
I2555
sVWilson Chandler
p278
I201163
sVChase Budinger
p279
I201978
sVCory Jefferson
p280
I203928
sVJose Calderon
p281
I101181
sVRichard Jefferson
p282
I2210
sVJosh McRoberts
p283
I201177
sVJaMychal Green
p284
I203210
sVLaMarcus Aldridge
p285
I200746
sVJusuf Nurkic
p286
I203994
sVRobert Covington
p287
I203496
sVJerrelle Benimon
p288
I203968
sVDewayne Dedmon
p289
I203473
sVEkpe Udoh
p290
I202327
sVLuke Babbitt
p291
I202337
sVAndre Dawkins
p292
I203958
sVGigi Datome
p293
I203540
sVBrandon Davies
p294
I203561
sVRicky Ledo
p295
I203495
sVKyle Singler
p296
I202713
sVHassan Whiteside
p297
I202355
sVLarry Sanders
p298
I202336
sVAlex Len
p299
I203458
sVGreivis Vasquez
p300
I202349
sVCJ Miles
p301
I101139
sVAmar'e Stoudemire
p302
I2405
sVRamon Sessions
p303
I201196
sVQuincy Acy
p304
I203112
sVDrew Gordon
p305
I204079
sVRudy Gay
p306
I200752
sVJeff Taylor
p307
I203106
sVOgnjen Kuzmic
p308
I203136
sVPero Antic
p309
I203544
sVDennis Schroder
p310
I203471
sVGreg Smith
p311
I202962
sVBrandon Jennings
p312
I201943
sVRicky Rubio
p313
I201937
sVDrew Gooden
p314
I2400
sVDwyane Wade
p315
I2548
sVJoey Dorsey
p316
I201595
sVKlay Thompson
p317
I202691
sVWill Bynum
p318
I101198
sVPatrick Patterson
p319
I202335
sVIsaiah Canaan
p320
I203477
sVGordon Hayward
p321
I202330
sVMarco Belinelli
p322
I201158
sVQuincy Pondexter
p323
I202347
sVShawn Marion
p324
I1890
sVRodney Hood
p325
I203918
sVDeMarre Carroll
p326
I201960
sVJabari Parker
p327
I203953
sVJimmer Fredette
p328
I202690
sVChris Bosh
p329
I2547
sVHedo Turkoglu
p330
I2045
sVJonas Valanciunas
p331
I202685
sVKyle Anderson
p332
I203937
sVXavier Henry
p333
I202333
sVLangston Galloway
p334
I204038
sVRobert Sacre
p335
I203135
sVIan Clark
p336
I203546
sVJason Maxiell
p337
I101131
sVSeth Curry
p338
I203552
sVJames Michael McAdoo
p339
I203949
sVBlake Griffin
p340
I201933
sVArinze Onuaku
p341
I202620
sVBrandan Wright
p342
I201148
sVJohnny O'Bryant
p343
I203948
sVBojan Bogdanovic
p344
I202711
sVSteve Novak
p345
I200779
sVOmer Asik
p346
I201600
sVDante Exum
p347
I203957
sVHenry Sims
p348
I203156
sVDante Cunningham
p349
I201967
sVTristan Thompson
p350
I202684
sVRonny Turiaf
p351
I101142
sVMike Conley
p352
I201144
sVMichael Beasley
p353
I201563
sVKalin Lucas
p354
I203564
sVCharlie Villanueva
p355
I101111
sVMarreese Speights
p356
I201578
sVDamjan Rudez
p357
I204014
sVPJ Hairston
p358
I203798
sVCJ Watson
p359
I201228
sVTobias Harris
p360
I202699
sVJ.R. Smith
p361
I2747
sVLou Williams
p362
I101150
sVEric Gordon
p363
I201569
sVBoris Diaw
p364
I2564
sVMatt Bonner
p365
I2588
sVIan Mahinmi
p366
I101133
sVAllen Crabbe
p367
I203459
sVClint Capela
p368
I203991
sVDanny Green
p369
I201980
sVAaron Gordon
p370
I203932
sVFurkan Aldemir
p371
I203128
sVRussell Westbrook
p372
I201566
sVDirk Nowitzki
p373
I1717
sVBen McLemore
p374
I203463
sVDeMar DeRozan
p375
I201942
sVGlen Davis
p376
I201175
sVTim Duncan
p377
I1495
sVWayne Ellington
p378
I201961
sVShabazz Napier
p379
I203894
sVMason Plumlee
p380
I203486
sVMatt Barnes
p381
I2440
sVKJ McDaniels
p382
I203909
sVJustin Hamilton
p383
I203120
sVDahntay Jones
p384
I2563
sVElliot Williams
p385
I202343
sVLandry Fields
p386
I202361
sVJoel Freeland
p387
I200777
sVIman Shumpert
p388
I202697
sVAndrew Nicholson
p389
I203094
sVJJ Redick
p390
I200755
sVHarrison Barnes
p391
I203084
sVRyan Anderson
p392
I201583
sVRay McCallum
p393
I203492
sVCartier Martin
p394
I201858
sVJoffrey Lauvergne
p395
I203530
sVSerge Ibaka
p396
I201586
sVSean Kilpatrick
p397
I203930
sVTyson Chandler
p398
I2199
sVJerryd Bayless
p399
I201573
sVBruno Caboclo
p400
I203998
sVTim Hardaway Jr.
p401
I203501
sVRyan Kelly
p402
I203527
sVNate Robinson
p403
I101126
sVSpencer Dinwiddie
p404
I203915
sVCarl Landry
p405
I201171
sVTrevor Ariza
p406
I2772
sVNick Johnson
p407
I203910
sVJason Thompson
p408
I201574
sVTony Snell
p409
I203503
sVDion Waiters
p410
I203079
sVAndre Miller
p411
I1889
sVTyrus Thomas
p412
I200748
sVKent Bazemore
p413
I203145
sVDarius Miller
p414
I203121
sVTayshaun Prince
p415
I2419
sVDeJuan Blair
p416
I201971
sVTerrence Ross
p417
I203082
sVEric Moreland
p418
I203961
sVGerald Henderson
p419
I201945
sVFrancisco Garcia
p420
I101128
sVAndre Drummond
p421
I203083
sVNicolas Batum
p422
I201587
sVAndrea Bargnani
p423
I200745
sVArron Afflalo
p424
I201167
sVCody Zeller
p425
I203469
sVMarcus Morris
p426
I202694
sVDerrick Rose
p427
I201565
sVBrendan Haywood
p428
I2217
sVMarkel Brown
p429
I203900
sVMaurice Harkless
p430
I203090
sVBrian Roberts
p431
I203148
sVMarcin Gortat
p432
I101162
sVKawhi Leonard
p433
I202695
sVKenyon Martin
p434
I2030
sVAl Jefferson
p435
I2744
sVChanning Frye
p436
I101112
sVDevin Harris
p437
I2734
sVShane Larkin
p438
I203499
sVBen Gordon
p439
I2732
sVOtto Porter
p440
I203490
sVDarren Collison
p441
I201954
sVAlec Burks
p442
I202692
sVJaKarr Sampson
p443
I203960
sVNerlens Noel
p444
I203457
sVMike Dunleavy
p445
I2399
sVAndre Iguodala
p446
I2738
sVAlonzo Gee
p447
I202087
sVGary Harris
p448
I203914
sVElton Brand
p449
I1882
sVEvan Fournier
p450
I203095
sVJared Dudley
p451
I201162
sVJohn Henson
p452
I203089
sVTrey Burke
p453
I203504
sVAndre Roberson
p454
I203460
sVGrant Jerrett
p455
I203511
sVJonas Jerebko
p456
I201973
sVAron Baynes
p457
I203382
sVJarrett Jack
p458
I101127
sVMarkieff Morris
p459
I202693
sVJack Cooley
p460
I204022
sVRyan Hollins
p461
I200797
sVDwight Howard
p462
I2730
sVMatthew Dellavedova
p463
I203521
sVGal Mekel
p464
I203539
sVPatty Mills
p465
I201988
sVGreg Monroe
p466
I202328
sVLou Amundson
p467
I200811
sVShabazz Muhammad
p468
I203498
sVChandler Parsons
p469
I202718
sVChris Andersen
p470
I2365
sVMitch McGary
p471
I203956
sVJose Juan Barea
p472
I200826
sVJames Harden
p473
I201935
sVGerald Green
p474
I101123
sVNikola Mirotic
p475
I202703
sVChris Douglas-Roberts
p476
I201604
sVShawne Williams
p477
I200761
sVVictor Oladipo
p478
I203506
sVD.J. Augustin
p479
I201571
sVLeandro Barbosa
p480
I2571
sVAndrew Bogut
p481
I101106
sVDerrick Favors
p482
I202324
sVKendrick Perkins
p483
I2570
sVJrue Holiday
p484
I201950
sVTerrence Jones
p485
I203093
sVJeremy Lin
p486
I202391
sVRonnie Price
p487
I101179
sVAlexis Ajinca
p488
I201582
sVAndrei Kirilenko
p489
I1905
sVPaul George
p490
I202331
sVPaul Pierce
p491
I1718
sVMiroslav Raduljica
p492
I203545
s.